; Function Attrs: mustprogress nounwind uwtable
define dso_local noundef ptr @_ZNK4llvm23ItaniumPartialDemangler15getFunctionNameEPcPm(ptr nocapture noundef nonnull readonly align 8 dereferenceable(16) %0, ptr noundef %1, ptr noundef %2) local_unnamed_addr #1 align 2 {
  %4 = load ptr, ptr %0, align 8
  %5 = getelementptr inbounds nuw i8, ptr %4, i64 8
  %6 = load i8, ptr %5, align 8
  %7 = icmp eq i8 %6, 19
  br i1 %7, label %8, label %12

8:                                                ; preds = %3
  %9 = getelementptr inbounds nuw i8, ptr %4, i64 24
  %10 = load ptr, ptr %9, align 8
  %11 = tail call fastcc noundef ptr @_ZL9printNodePKN4llvm16itanium_demangle4NodeEPcPm(ptr noundef %10, ptr noundef %1, ptr noundef %2)
  br label %12

12:                                               ; preds = %3, %8
  %.0 = phi ptr [ %11, %8 ], [ null, %3 ]
  ret ptr %.0
}